target datalayout = "e-m:e-p270:32:32-p271:32:32-p272:64:64-i64:64-i128:128-f80:128-n8:16:32:64-S128"
target triple = "x86_64-pc-linux-gnu"

; Function Attrs: nounwind uwtable
define i32 @BN_generate_prime_ex(ptr noundef %0, i32 noundef %1, i32 noundef %2, ptr noundef %3, ptr noundef %4, ptr noundef %5) #0 {
  %7 = alloca i32, align 4
  %8 = alloca ptr, align 8
  %9 = alloca i32, align 4
  %10 = alloca i32, align 4
  %11 = alloca ptr, align 8
  %12 = alloca ptr, align 8
  %13 = alloca ptr, align 8
  %14 = alloca ptr, align 8
  %15 = alloca i32, align 4
  %16 = alloca i32, align 4
  store ptr %0, ptr %8, align 8, !tbaa !14
  store i32 %1, ptr %9, align 4, !tbaa !8
  store i32 %2, ptr %10, align 4, !tbaa !8
  store ptr %3, ptr %11, align 8, !tbaa !14
  store ptr %4, ptr %12, align 8, !tbaa !14
  store ptr %5, ptr %13, align 8, !tbaa !3
  call void @llvm.lifetime.start.p0(i64 8, ptr %14) #3
  %17 = call ptr @BN_CTX_new()
  store ptr %17, ptr %14, align 8, !tbaa !16
  call void @llvm.lifetime.start.p0(i64 4, ptr %15) #3
  %18 = load ptr, ptr %14, align 8, !tbaa !16
  %19 = icmp eq ptr %18, null
  br i1 %19, label %20, label %21

20:                                               ; preds = %6
  store i32 0, ptr %7, align 4
  store i32 1, ptr %16, align 4
  br label %32

21:                                               ; preds = %6
  %22 = load ptr, ptr %8, align 8, !tbaa !14
  %23 = load i32, ptr %9, align 4, !tbaa !8
  %24 = load i32, ptr %10, align 4, !tbaa !8
  %25 = load ptr, ptr %11, align 8, !tbaa !14
  %26 = load ptr, ptr %12, align 8, !tbaa !14
  %27 = load ptr, ptr %13, align 8, !tbaa !3
  %28 = load ptr, ptr %14, align 8, !tbaa !16
  %29 = call i32 @BN_generate_prime_ex2(ptr noundef %22, i32 noundef %23, i32 noundef %24, ptr noundef %25, ptr noundef %26, ptr noundef %27, ptr noundef %28)
  store i32 %29, ptr %15, align 4, !tbaa !8
  %30 = load ptr, ptr %14, align 8, !tbaa !16
  call void @BN_CTX_free(ptr noundef %30)
  %31 = load i32, ptr %15, align 4, !tbaa !8
  store i32 %31, ptr %7, align 4
  store i32 1, ptr %16, align 4
  br label %32

32:                                               ; preds = %21, %20
  call void @llvm.lifetime.end.p0(i64 4, ptr %15) #3
  call void @llvm.lifetime.end.p0(i64 8, ptr %14) #3
  %33 = load i32, ptr %7, align 4
  ret i32 %33
}