; Function Attrs: nounwind uwtable
define range(i32 0, 2) i32 @BN_generate_prime_ex(ptr noundef %0, i32 noundef %1, i32 noundef %2, ptr noundef %3, ptr noundef %4, ptr noundef %5) local_unnamed_addr #1 {
  %7 = tail call ptr @BN_CTX_new() #5
  %8 = icmp eq ptr %7, null
  br i1 %8, label %11, label %9

9:                                                ; preds = %6
  %10 = tail call i32 @BN_generate_prime_ex2(ptr noundef %0, i32 noundef %1, i32 noundef %2, ptr noundef %3, ptr noundef %4, ptr noundef %5, ptr noundef nonnull %7)
  tail call void @BN_CTX_free(ptr noundef nonnull %7) #5
  br label %11

11:                                               ; preds = %6, %9
  %.0 = phi i32 [ %10, %9 ], [ 0, %6 ]
  ret i32 %.0
}